target datalayout = "e-m:e-p270:32:32-p271:32:32-p272:64:64-i64:64-i128:128-f80:128-n8:16:32:64-S128"
target triple = "x86_64-pc-linux-gnu"

@.str.90 = private unnamed_addr constant [6 x i8] c"[]()|\00", align 1
@.str.91 = private unnamed_addr constant [4 x i8] c"&,*\00", align 1

; Function Attrs: nounwind uwtable
define internal i32 @_knl_numa_bits_cnt(i16 noundef zeroext %0) #0 {
  %2 = alloca i16, align 2
  %3 = alloca i32, align 4
  %4 = alloca i32, align 4
  %5 = alloca i16, align 2
  store i16 %0, ptr %2, align 2
  call void @llvm.lifetime.start.p0(i64 4, ptr %3) #9
  store i32 0, ptr %3, align 4
  call void @llvm.lifetime.start.p0(i64 4, ptr %4) #9
  call void @llvm.lifetime.start.p0(i64 2, ptr %5) #9
  store i16 1, ptr %5, align 2
  store i32 0, ptr %4, align 4
  br label %6

6:                                                ; preds = %25, %1
  %7 = load i32, ptr %4, align 4
  %8 = icmp slt i32 %7, 16
  br i1 %8, label %9, label %28

9:                                                ; preds = %6
  %10 = load i16, ptr %2, align 2
  %11 = zext i16 %10 to i32
  %12 = and i32 %11, 255
  %13 = load i16, ptr %5, align 2
  %14 = zext i16 %13 to i32
  %15 = and i32 %12, %14
  %16 = icmp ne i32 %15, 0
  br i1 %16, label %17, label %20

17:                                               ; preds = %9
  %18 = load i32, ptr %3, align 4
  %19 = add nsw i32 %18, 1
  store i32 %19, ptr %3, align 4
  br label %20

20:                                               ; preds = %17, %9
  %21 = load i16, ptr %5, align 2
  %22 = zext i16 %21 to i32
  %23 = shl i32 %22, 1
  %24 = trunc i32 %23 to i16
  store i16 %24, ptr %5, align 2
  br label %25

25:                                               ; preds = %20
  %26 = load i32, ptr %4, align 4
  %27 = add nsw i32 %26, 1
  store i32 %27, ptr %4, align 4
  br label %6, !llvm.loop !15

28:                                               ; preds = %6
  %29 = load i32, ptr %3, align 4
  call void @llvm.lifetime.end.p0(i64 2, ptr %5) #9
  call void @llvm.lifetime.end.p0(i64 4, ptr %4) #9
  call void @llvm.lifetime.end.p0(i64 4, ptr %3) #9
  ret i32 %29
}

; Function Attrs: nounwind uwtable
define internal i32 @_knl_mcdram_bits_cnt(i16 noundef zeroext %0) #0 {
  %2 = alloca i16, align 2
  %3 = alloca i32, align 4
  %4 = alloca i32, align 4
  %5 = alloca i16, align 2
  store i16 %0, ptr %2, align 2
  call void @llvm.lifetime.start.p0(i64 4, ptr %3) #9
  store i32 0, ptr %3, align 4
  call void @llvm.lifetime.start.p0(i64 4, ptr %4) #9
  call void @llvm.lifetime.start.p0(i64 2, ptr %5) #9
  store i16 1, ptr %5, align 2
  store i32 0, ptr %4, align 4
  br label %6

6:                                                ; preds = %25, %1
  %7 = load i32, ptr %4, align 4
  %8 = icmp slt i32 %7, 16
  br i1 %8, label %9, label %28

9:                                                ; preds = %6
  %10 = load i16, ptr %2, align 2
  %11 = zext i16 %10 to i32
  %12 = and i32 %11, 65280
  %13 = load i16, ptr %5, align 2
  %14 = zext i16 %13 to i32
  %15 = and i32 %12, %14
  %16 = icmp ne i32 %15, 0
  br i1 %16, label %17, label %20

17:                                               ; preds = %9
  %18 = load i32, ptr %3, align 4
  %19 = add nsw i32 %18, 1
  store i32 %19, ptr %3, align 4
  br label %20

20:                                               ; preds = %17, %9
  %21 = load i16, ptr %5, align 2
  %22 = zext i16 %21 to i32
  %23 = shl i32 %22, 1
  %24 = trunc i32 %23 to i16
  store i16 %24, ptr %5, align 2
  br label %25

25:                                               ; preds = %20
  %26 = load i32, ptr %4, align 4
  %27 = add nsw i32 %26, 1
  store i32 %27, ptr %4, align 4
  br label %6, !llvm.loop !13

28:                                               ; preds = %6
  %29 = load i32, ptr %3, align 4
  call void @llvm.lifetime.end.p0(i64 2, ptr %5) #9
  call void @llvm.lifetime.end.p0(i64 4, ptr %4) #9
  call void @llvm.lifetime.end.p0(i64 4, ptr %3) #9
  ret i32 %29
}

; Function Attrs: nounwind uwtable
define internal zeroext i16 @_knl_mcdram_parse(ptr noundef %0, ptr noundef %1) #0 {
  %3 = alloca i16, align 2
  %4 = alloca ptr, align 8
  %5 = alloca ptr, align 8
  %6 = alloca ptr, align 8
  %7 = alloca ptr, align 8
  %8 = alloca ptr, align 8
  %9 = alloca i16, align 2
  %10 = alloca i32, align 4
  store ptr %0, ptr %4, align 8
  store ptr %1, ptr %5, align 8
  call void @llvm.lifetime.start.p0(i64 8, ptr %6) #9
  store ptr null, ptr %6, align 8
  call void @llvm.lifetime.start.p0(i64 8, ptr %7) #9
  call void @llvm.lifetime.start.p0(i64 8, ptr %8) #9
  call void @llvm.lifetime.start.p0(i64 2, ptr %9) #9
  store i16 0, ptr %9, align 2
  %11 = load ptr, ptr %4, align 8
  %12 = icmp ne ptr %11, null
  br i1 %12, label %15, label %13

13:                                               ; preds = %2
  %14 = load i16, ptr %9, align 2
  store i16 %14, ptr %3, align 2
  store i32 1, ptr %10, align 4
  br label %36

15:                                               ; preds = %2
  %16 = load ptr, ptr %4, align 8
  %17 = call ptr @xstrdup(ptr noundef %16)
  store ptr %17, ptr %7, align 8
  %18 = load ptr, ptr %7, align 8
  %19 = load ptr, ptr %5, align 8
  %20 = call ptr @strtok_r(ptr noundef %18, ptr noundef %19, ptr noundef %6) #9
  store ptr %20, ptr %8, align 8
  br label %21

21:                                               ; preds = %24, %15
  %22 = load ptr, ptr %8, align 8
  %23 = icmp ne ptr %22, null
  br i1 %23, label %24, label %34

24:                                               ; preds = %21
  %25 = load ptr, ptr %8, align 8
  %26 = call zeroext i16 @_knl_mcdram_token(ptr noundef %25)
  %27 = zext i16 %26 to i32
  %28 = load i16, ptr %9, align 2
  %29 = zext i16 %28 to i32
  %30 = or i32 %29, %27
  %31 = trunc i32 %30 to i16
  store i16 %31, ptr %9, align 2
  %32 = load ptr, ptr %5, align 8
  %33 = call ptr @strtok_r(ptr noundef null, ptr noundef %32, ptr noundef %6) #9
  store ptr %33, ptr %8, align 8
  br label %21, !llvm.loop !12

34:                                               ; preds = %21
  call void @slurm_xfree(ptr noundef %7)
  %35 = load i16, ptr %9, align 2
  store i16 %35, ptr %3, align 2
  store i32 1, ptr %10, align 4
  br label %36

36:                                               ; preds = %34, %13
  call void @llvm.lifetime.end.p0(i64 2, ptr %9) #9
  call void @llvm.lifetime.end.p0(i64 8, ptr %8) #9
  call void @llvm.lifetime.end.p0(i64 8, ptr %7) #9
  call void @llvm.lifetime.end.p0(i64 8, ptr %6) #9
  %37 = load i16, ptr %3, align 2
  ret i16 %37
}

; Function Attrs: nounwind uwtable
define dso_local i32 @node_features_p_job_valid(ptr noundef %0, ptr noundef %1) #0 {
  %3 = alloca i32, align 4
  %4 = alloca ptr, align 8
  %5 = alloca ptr, align 8
  %6 = alloca i16, align 2
  %7 = alloca i16, align 2
  %8 = alloca i32, align 4
  %9 = alloca i32, align 4
  %10 = alloca i32, align 4
  %11 = alloca i32, align 4
  %12 = alloca i32, align 4
  %13 = alloca i8, align 1
  %14 = alloca ptr, align 8
  %15 = alloca ptr, align 8
  %16 = alloca ptr, align 8
  %17 = alloca i32, align 4
  store ptr %0, ptr %4, align 8
  store ptr %1, ptr %5, align 8
  call void @llvm.lifetime.start.p0(i64 2, ptr %6) #9
  call void @llvm.lifetime.start.p0(i64 2, ptr %7) #9
  call void @llvm.lifetime.start.p0(i64 4, ptr %8) #9
  call void @llvm.lifetime.start.p0(i64 4, ptr %9) #9
  call void @llvm.lifetime.start.p0(i64 4, ptr %10) #9
  store i32 0, ptr %10, align 4
  call void @llvm.lifetime.start.p0(i64 4, ptr %11) #9
  store i32 0, ptr %11, align 4
  call void @llvm.lifetime.start.p0(i64 4, ptr %12) #9
  store i32 0, ptr %12, align 4
  call void @llvm.lifetime.start.p0(i64 1, ptr %13) #9
  store i8 0, ptr %13, align 1
  call void @llvm.lifetime.start.p0(i64 8, ptr %14) #9
  call void @llvm.lifetime.start.p0(i64 8, ptr %15) #9
  call void @llvm.lifetime.start.p0(i64 8, ptr %16) #9
  store ptr null, ptr %16, align 8
  %18 = load ptr, ptr %4, align 8
  %19 = icmp eq ptr %18, null
  br i1 %19, label %26, label %20

20:                                               ; preds = %2
  %21 = load ptr, ptr %4, align 8
  %22 = getelementptr inbounds i8, ptr %21, i64 0
  %23 = load i8, ptr %22, align 1
  %24 = sext i8 %23 to i32
  %25 = icmp eq i32 %24, 0
  br i1 %25, label %26, label %27

26:                                               ; preds = %20, %2
  store i32 0, ptr %3, align 4
  store i32 1, ptr %17, align 4
  br label %86

27:                                               ; preds = %20
  %28 = load ptr, ptr %4, align 8
  %29 = call ptr @xstrdup(ptr noundef %28)
  store ptr %29, ptr %14, align 8
  %30 = load ptr, ptr %14, align 8
  %31 = call ptr @strtok_r(ptr noundef %30, ptr noundef @.str.90, ptr noundef %16) #9
  store ptr %31, ptr %15, align 8
  br label %32

32:                                               ; preds = %83, %27
  %33 = load ptr, ptr %15, align 8
  %34 = icmp ne ptr %33, null
  br i1 %34, label %35, label %84

35:                                               ; preds = %32
  %36 = load ptr, ptr %15, align 8
  %37 = load ptr, ptr %15, align 8
  %38 = call i64 @strlen(ptr noundef %37) #12
  %39 = sub i64 %38, 1
  %40 = getelementptr inbounds nuw i8, ptr %36, i64 %39
  %41 = load i8, ptr %40, align 1
  store i8 %41, ptr %13, align 1
  %42 = load ptr, ptr %15, align 8
  %43 = call zeroext i16 @_knl_mcdram_parse(ptr noundef %42, ptr noundef @.str.91)
  store i16 %43, ptr %6, align 2
  %44 = load i16, ptr %6, align 2
  %45 = call i32 @_knl_mcdram_bits_cnt(i16 noundef zeroext %44)
  %46 = load i32, ptr %10, align 4
  %47 = add nsw i32 %45, %46
  store i32 %47, ptr %8, align 4
  %48 = load i32, ptr %8, align 4
  %49 = icmp sgt i32 %48, 1
  br i1 %49, label %50, label %51

50:                                               ; preds = %35
  store i32 8001, ptr %12, align 4
  br label %84

51:                                               ; preds = %35
  %52 = load ptr, ptr %15, align 8
  %53 = call zeroext i16 @_knl_numa_parse(ptr noundef %52, ptr noundef @.str.91)
  store i16 %53, ptr %7, align 2
  %54 = load i16, ptr %7, align 2
  %55 = call i32 @_knl_numa_bits_cnt(i16 noundef zeroext %54)
  %56 = load i32, ptr %11, align 4
  %57 = add nsw i32 %55, %56
  store i32 %57, ptr %9, align 4
  %58 = load i32, ptr %9, align 4
  %59 = icmp sgt i32 %58, 1
  br i1 %59, label %60, label %61

60:                                               ; preds = %51
  store i32 8001, ptr %12, align 4
  br label %84

61:                                               ; preds = %51
  %62 = call ptr @strtok_r(ptr noundef null, ptr noundef @.str.90, ptr noundef %16) #9
  store ptr %62, ptr %15, align 8
  %63 = load ptr, ptr %15, align 8
  %64 = icmp ne ptr %63, null
  br i1 %64, label %65, label %82

65:                                               ; preds = %61
  %66 = load i8, ptr %13, align 1
  %67 = sext i8 %66 to i32
  %68 = icmp eq i32 %67, 38
  br i1 %68, label %75, label %69

69:                                               ; preds = %65
  %70 = load ptr, ptr %15, align 8
  %71 = getelementptr inbounds i8, ptr %70, i64 0
  %72 = load i8, ptr %71, align 1
  %73 = sext i8 %72 to i32
  %74 = icmp eq i32 %73, 38
  br i1 %74, label %75, label %82

75:                                               ; preds = %69, %65
  %76 = load i32, ptr %8, align 4
  %77 = load i32, ptr %10, align 4
  %78 = add nsw i32 %77, %76
  store i32 %78, ptr %10, align 4
  %79 = load i32, ptr %9, align 4
  %80 = load i32, ptr %11, align 4
  %81 = add nsw i32 %80, %79
  store i32 %81, ptr %11, align 4
  br label %83

82:                                               ; preds = %69, %61
  store i32 0, ptr %10, align 4
  store i32 0, ptr %11, align 4
  br label %83

83:                                               ; preds = %82, %75
  br label %32, !llvm.loop !33

84:                                               ; preds = %60, %50, %32
  call void @slurm_xfree(ptr noundef %14)
  %85 = load i32, ptr %12, align 4
  store i32 %85, ptr %3, align 4
  store i32 1, ptr %17, align 4
  br label %86

86:                                               ; preds = %84, %26
  call void @llvm.lifetime.end.p0(i64 8, ptr %16) #9
  call void @llvm.lifetime.end.p0(i64 8, ptr %15) #9
  call void @llvm.lifetime.end.p0(i64 8, ptr %14) #9
  call void @llvm.lifetime.end.p0(i64 1, ptr %13) #9
  call void @llvm.lifetime.end.p0(i64 4, ptr %12) #9
  call void @llvm.lifetime.end.p0(i64 4, ptr %11) #9
  call void @llvm.lifetime.end.p0(i64 4, ptr %10) #9
  call void @llvm.lifetime.end.p0(i64 4, ptr %9) #9
  call void @llvm.lifetime.end.p0(i64 4, ptr %8) #9
  call void @llvm.lifetime.end.p0(i64 2, ptr %7) #9
  call void @llvm.lifetime.end.p0(i64 2, ptr %6) #9
  %87 = load i32, ptr %3, align 4
  ret i32 %87
}