; Function Attrs: nounwind uwtable
define dso_local range(i32 0, 8002) i32 @node_features_p_job_valid(ptr noundef %0, ptr noundef readnone captures(none) %1) local_unnamed_addr #0 {
  %3 = alloca ptr, align 8
  %4 = alloca ptr, align 8
  %5 = alloca ptr, align 8
  %6 = alloca ptr, align 8
  call void @llvm.lifetime.start.p0(i64 8, ptr nonnull %5) #14
  call void @llvm.lifetime.start.p0(i64 8, ptr nonnull %6) #14
  store ptr null, ptr %6, align 8
  %7 = icmp eq ptr %0, null
  br i1 %7, label %54, label %8

8:                                                ; preds = %2
  %9 = load i8, ptr %0, align 1
  %10 = icmp eq i8 %9, 0
  br i1 %10, label %54, label %11

11:                                               ; preds = %8
  %12 = tail call ptr @xstrdup(ptr noundef nonnull %0) #14
  store ptr %12, ptr %5, align 8
  %13 = call ptr @strtok_r(ptr noundef %12, ptr noundef nonnull @.str.90, ptr noundef nonnull %6) #14
  %.not39 = icmp eq ptr %13, null
  br i1 %.not39, label %_knl_numa_bits_cnt.exit._crit_edge, label %.lr.ph

.lr.ph:                                           ; preds = %11, %.lr.ph.backedge
  %.042 = phi ptr [ %45, %.lr.ph.backedge ], [ %13, %11 ]
  %.02341 = phi i32 [ %.02341.be, %.lr.ph.backedge ], [ 0, %11 ]
  %.02440 = phi i32 [ %.02440.be, %.lr.ph.backedge ], [ 0, %11 ]
  %14 = call i64 @strlen(ptr noundef nonnull dereferenceable(1) %.042) #16
  %15 = getelementptr i8, ptr %.042, i64 %14
  %16 = getelementptr i8, ptr %15, i64 -1
  %17 = load i8, ptr %16, align 1
  call void @llvm.lifetime.start.p0(i64 8, ptr nonnull %3) #14
  store ptr null, ptr %3, align 8
  call void @llvm.lifetime.start.p0(i64 8, ptr nonnull %4) #14
  %18 = call ptr @xstrdup(ptr noundef nonnull %.042) #14
  store ptr %18, ptr %4, align 8
  %19 = call ptr @strtok_r(ptr noundef %18, ptr noundef nonnull @.str.91, ptr noundef nonnull %3) #14
  %.not1213.i = icmp eq ptr %19, null
  br i1 %.not1213.i, label %_knl_mcdram_parse.exit, label %.lr.ph.i

.lr.ph.i:                                         ; preds = %.lr.ph, %.lr.ph.i
  %.015.i = phi i16 [ %21, %.lr.ph.i ], [ 0, %.lr.ph ]
  %.0914.i = phi ptr [ %22, %.lr.ph.i ], [ %19, %.lr.ph ]
  %20 = call fastcc zeroext i16 @_knl_mcdram_token(ptr noundef nonnull %.0914.i)
  %21 = or i16 %20, %.015.i
  %22 = call ptr @strtok_r(ptr noundef null, ptr noundef nonnull @.str.91, ptr noundef nonnull %3) #14
  %.not12.i = icmp eq ptr %22, null
  br i1 %.not12.i, label %_knl_mcdram_parse.exit.loopexit, label %.lr.ph.i, !llvm.loop !8

_knl_mcdram_parse.exit.loopexit:                  ; preds = %.lr.ph.i
  %23 = and i16 %21, -256
  %24 = zext nneg i16 %23 to i32
  br label %_knl_mcdram_parse.exit

_knl_mcdram_parse.exit:                           ; preds = %_knl_mcdram_parse.exit.loopexit, %.lr.ph
  %.0.lcssa.i = phi i32 [ 0, %.lr.ph ], [ %24, %_knl_mcdram_parse.exit.loopexit ]
  call void @slurm_xfree(ptr noundef nonnull %4) #14
  call void @llvm.lifetime.end.p0(i64 8, ptr nonnull %4) #14
  call void @llvm.lifetime.end.p0(i64 8, ptr nonnull %3) #14
  br label %25

25:                                               ; preds = %25, %_knl_mcdram_parse.exit
  %.011.i = phi i32 [ 1, %_knl_mcdram_parse.exit ], [ %29, %25 ]
  %.0710.i = phi i32 [ 0, %_knl_mcdram_parse.exit ], [ %30, %25 ]
  %.089.i = phi i32 [ 0, %_knl_mcdram_parse.exit ], [ %spec.select.i, %25 ]
  %26 = and i32 %.011.i, %.0.lcssa.i
  %.not.i32 = icmp ne i32 %26, 0
  %27 = zext i1 %.not.i32 to i32
  %spec.select.i = add nuw nsw i32 %.089.i, %27
  %28 = shl nuw nsw i32 %.011.i, 1
  %29 = and i32 %28, 131070
  %30 = add nuw nsw i32 %.0710.i, 1
  %exitcond.not.i = icmp eq i32 %30, 16
  br i1 %exitcond.not.i, label %_knl_mcdram_bits_cnt.exit, label %25, !llvm.loop !11

_knl_mcdram_bits_cnt.exit:                        ; preds = %25
  %31 = add nsw i32 %spec.select.i, %.02440
  %32 = icmp sgt i32 %31, 1
  br i1 %32, label %_knl_numa_bits_cnt.exit._crit_edge, label %33

33:                                               ; preds = %_knl_mcdram_bits_cnt.exit
  %34 = call fastcc zeroext i16 @_knl_numa_parse(ptr noundef nonnull %.042, ptr noundef nonnull @.str.91)
  %35 = zext nneg i16 %34 to i32
  br label %36

36:                                               ; preds = %36, %33
  %.011.i33 = phi i32 [ 1, %33 ], [ %40, %36 ]
  %.0710.i34 = phi i32 [ 0, %33 ], [ %41, %36 ]
  %.089.i35 = phi i32 [ 0, %33 ], [ %spec.select.i37, %36 ]
  %37 = and i32 %.011.i33, %35
  %.not.i36 = icmp ne i32 %37, 0
  %38 = zext i1 %.not.i36 to i32
  %spec.select.i37 = add nuw nsw i32 %.089.i35, %38
  %39 = shl nuw nsw i32 %.011.i33, 1
  %40 = and i32 %39, 131070
  %41 = add nuw nsw i32 %.0710.i34, 1
  %exitcond.not.i38 = icmp eq i32 %41, 16
  br i1 %exitcond.not.i38, label %_knl_numa_bits_cnt.exit, label %36, !llvm.loop !12

_knl_numa_bits_cnt.exit:                          ; preds = %36
  %42 = add nsw i32 %spec.select.i37, %.02341
  %43 = icmp sgt i32 %42, 1
  br i1 %43, label %_knl_numa_bits_cnt.exit._crit_edge, label %44

44:                                               ; preds = %_knl_numa_bits_cnt.exit
  %45 = call ptr @strtok_r(ptr noundef null, ptr noundef nonnull @.str.90, ptr noundef nonnull %6) #14
  %.not31 = icmp eq ptr %45, null
  br i1 %.not31, label %_knl_numa_bits_cnt.exit._crit_edge, label %46

46:                                               ; preds = %44
  %47 = icmp eq i8 %17, 38
  br i1 %47, label %51, label %48

48:                                               ; preds = %46
  %49 = load i8, ptr %45, align 1
  %50 = icmp eq i8 %49, 38
  br i1 %50, label %51, label %.lr.ph.backedge

.lr.ph.backedge:                                  ; preds = %48, %51
  %.02341.be = phi i32 [ 0, %48 ], [ %53, %51 ]
  %.02440.be = phi i32 [ 0, %48 ], [ %52, %51 ]
  br label %.lr.ph, !llvm.loop !29

51:                                               ; preds = %48, %46
  %52 = add nsw i32 %31, %.02440
  %53 = add nsw i32 %42, %.02341
  br label %.lr.ph.backedge

_knl_numa_bits_cnt.exit._crit_edge:               ; preds = %44, %_knl_mcdram_bits_cnt.exit, %_knl_numa_bits_cnt.exit, %11
  %.022 = phi i32 [ 0, %11 ], [ 0, %44 ], [ 8001, %_knl_numa_bits_cnt.exit ], [ 8001, %_knl_mcdram_bits_cnt.exit ]
  call void @slurm_xfree(ptr noundef nonnull %5) #14
  br label %54

54:                                               ; preds = %2, %8, %_knl_numa_bits_cnt.exit._crit_edge
  %.026 = phi i32 [ %.022, %_knl_numa_bits_cnt.exit._crit_edge ], [ 0, %8 ], [ 0, %2 ]
  call void @llvm.lifetime.end.p0(i64 8, ptr nonnull %6) #14
  call void @llvm.lifetime.end.p0(i64 8, ptr nonnull %5) #14
  ret i32 %.026
}